; Function Attrs: mustprogress uwtable
define dso_local void @_ZN9cmProcess13ChangeTimeoutENSt6chrono8durationIdSt5ratioILl1ELl1EEEE(ptr noundef nonnull align 8 dereferenceable(316) initializes((0, 8)) %0, double %1) local_unnamed_addr #3 align 2 personality ptr @__gxx_personality_v0 {
  %3 = getelementptr inbounds nuw i8, ptr %0, i64 8
  %4 = load i8, ptr %3, align 8
  %5 = trunc i8 %4 to i1
  br i1 %5, label %_ZNSt8optionalINSt6chrono8durationIdSt5ratioILl1ELl1EEEEEaSIRS4_EENSt9enable_ifIX7__and_vISt6__not_ISt7is_sameIS5_NSt9remove_cvINSt16remove_referenceIT_E4typeEE4typeEEES9_ISt6__and_IJSt9is_scalarIS4_ESA_IS4_NSt5decayISD_E4typeEEEEESt16is_constructibleIS4_JSD_EESt13is_assignableIS7_SD_EEERS5_E4typeEOSD_.exit, label %_ZNSt8optionalINSt6chrono8durationIdSt5ratioILl1ELl1EEEEEaSIRS4_EENSt9enable_ifIX7__and_vISt6__not_ISt7is_sameIS5_NSt9remove_cvINSt16remove_referenceIT_E4typeEE4typeEEES9_ISt6__and_IJSt9is_scalarIS4_ESA_IS4_NSt5decayISD_E4typeEEEEESt16is_constructibleIS4_JSD_EESt13is_assignableIS7_SD_EEERS5_E4typeEOSD_.exit.thread

_ZNSt8optionalINSt6chrono8durationIdSt5ratioILl1ELl1EEEEEaSIRS4_EENSt9enable_ifIX7__and_vISt6__not_ISt7is_sameIS5_NSt9remove_cvINSt16remove_referenceIT_E4typeEE4typeEEES9_ISt6__and_IJSt9is_scalarIS4_ESA_IS4_NSt5decayISD_E4typeEEEEESt16is_constructibleIS4_JSD_EESt13is_assignableIS7_SD_EEERS5_E4typeEOSD_.exit.thread: ; preds = %2
  store i8 1, ptr %3, align 8
  store double %1, ptr %0, align 8
  br label %7

_ZNSt8optionalINSt6chrono8durationIdSt5ratioILl1ELl1EEEEEaSIRS4_EENSt9enable_ifIX7__and_vISt6__not_ISt7is_sameIS5_NSt9remove_cvINSt16remove_referenceIT_E4typeEE4typeEEES9_ISt6__and_IJSt9is_scalarIS4_ESA_IS4_NSt5decayISD_E4typeEEEEESt16is_constructibleIS4_JSD_EESt13is_assignableIS7_SD_EEERS5_E4typeEOSD_.exit: ; preds = %2
  store double %1, ptr %0, align 8
  %6 = trunc i8 %4 to i1
  br i1 %6, label %7, label %_ZN9cmProcess10StartTimerEv.exit

7:                                                ; preds = %_ZNSt8optionalINSt6chrono8durationIdSt5ratioILl1ELl1EEEEEaSIRS4_EENSt9enable_ifIX7__and_vISt6__not_ISt7is_sameIS5_NSt9remove_cvINSt16remove_referenceIT_E4typeEE4typeEEES9_ISt6__and_IJSt9is_scalarIS4_ESA_IS4_NSt5decayISD_E4typeEEEEESt16is_constructibleIS4_JSD_EESt13is_assignableIS7_SD_EEERS5_E4typeEOSD_.exit.thread, %_ZNSt8optionalINSt6chrono8durationIdSt5ratioILl1ELl1EEEEEaSIRS4_EENSt9enable_ifIX7__and_vISt6__not_ISt7is_sameIS5_NSt9remove_cvINSt16remove_referenceIT_E4typeEE4typeEEES9_ISt6__and_IJSt9is_scalarIS4_ESA_IS4_NSt5decayISD_E4typeEEEEESt16is_constructibleIS4_JSD_EESt13is_assignableIS7_SD_EEERS5_E4typeEOSD_.exit
  %8 = fmul double %1, 1.000000e+03
  %9 = fptosi double %8 to i64
  %10 = getelementptr inbounds nuw i8, ptr %0, i64 80
  %11 = tail call noundef i32 @_ZN2cm12uv_timer_ptr5startEPFvP10uv_timer_sEmm(ptr noundef nonnull align 8 dereferenceable(16) %10, ptr noundef nonnull @_ZN9cmProcess11OnTimeoutCBEP10uv_timer_s, i64 noundef %9, i64 noundef 0)
  br label %_ZN9cmProcess10StartTimerEv.exit

_ZN9cmProcess10StartTimerEv.exit:                 ; preds = %_ZNSt8optionalINSt6chrono8durationIdSt5ratioILl1ELl1EEEEEaSIRS4_EENSt9enable_ifIX7__and_vISt6__not_ISt7is_sameIS5_NSt9remove_cvINSt16remove_referenceIT_E4typeEE4typeEEES9_ISt6__and_IJSt9is_scalarIS4_ESA_IS4_NSt5decayISD_E4typeEEEEESt16is_constructibleIS4_JSD_EESt13is_assignableIS7_SD_EEERS5_E4typeEOSD_.exit, %7
  ret void
}